target datalayout = "e-m:e-p270:32:32-p271:32:32-p272:64:64-i64:64-i128:128-f80:128-n8:16:32:64-S128"
target triple = "x86_64-pc-linux-gnu"

%struct.DbInfo = type { i32, ptr, [1024 x i8], %struct.RelInfoArr, %struct.LogicalSlotInfoArr }
%struct.RelInfoArr = type { ptr, i32 }
%struct.LogicalSlotInfoArr = type { i32, ptr }
%struct.RelInfo = type { ptr, ptr, i32, i32, i32, i32, ptr, i8, i8 }

@.str.8 = private unnamed_addr constant [8 x i8] c"\22%s.%s\22\00", align 1
@.str.9 = private unnamed_addr constant [30 x i8] c" which is an index on \22%s.%s\22\00", align 1
@.str.10 = private unnamed_addr constant [29 x i8] c" which is an index on OID %u\00", align 1
@.str.11 = private unnamed_addr constant [38 x i8] c" which is the TOAST table for \22%s.%s\22\00", align 1
@.str.12 = private unnamed_addr constant [37 x i8] c" which is the TOAST table for OID %u\00", align 1
@.str.13 = private unnamed_addr constant [80 x i8] c"No match found in old cluster for new relation with OID %u in database \22%s\22: %s\00", align 1
@.str.14 = private unnamed_addr constant [80 x i8] c"No match found in new cluster for old relation with OID %u in database \22%s\22: %s\00", align 1

; Function Attrs: nounwind uwtable
define internal void @report_unmatched_relation(ptr noundef %0, ptr noundef %1, i1 noundef zeroext %2) #0 {
  %4 = alloca ptr, align 8
  %5 = alloca ptr, align 8
  %6 = alloca i8, align 1
  %7 = alloca i32, align 4
  %8 = alloca [1000 x i8], align 16
  %9 = alloca i32, align 4
  %10 = alloca ptr, align 8
  %11 = alloca i32, align 4
  %12 = alloca ptr, align 8
  store ptr %0, ptr %4, align 8
  store ptr %1, ptr %5, align 8
  %13 = zext i1 %2 to i8
  store i8 %13, ptr %6, align 1
  call void @llvm.lifetime.start.p0(i64 4, ptr %7) #7
  %14 = load ptr, ptr %4, align 8
  %15 = getelementptr inbounds nuw %struct.RelInfo, ptr %14, i32 0, i32 2
  %16 = load i32, ptr %15, align 8
  store i32 %16, ptr %7, align 4
  call void @llvm.lifetime.start.p0(i64 1000, ptr %8) #7
  call void @llvm.lifetime.start.p0(i64 4, ptr %9) #7
  %17 = getelementptr inbounds [1000 x i8], ptr %8, i64 0, i64 0
  %18 = load ptr, ptr %4, align 8
  %19 = getelementptr inbounds nuw %struct.RelInfo, ptr %18, i32 0, i32 0
  %20 = load ptr, ptr %19, align 8
  %21 = load ptr, ptr %4, align 8
  %22 = getelementptr inbounds nuw %struct.RelInfo, ptr %21, i32 0, i32 1
  %23 = load ptr, ptr %22, align 8
  %24 = call i32 (ptr, i64, ptr, ...) @pg_snprintf(ptr noundef %17, i64 noundef 1000, ptr noundef @.str.8, ptr noundef %20, ptr noundef %23)
  %25 = load ptr, ptr %4, align 8
  %26 = getelementptr inbounds nuw %struct.RelInfo, ptr %25, i32 0, i32 4
  %27 = load i32, ptr %26, align 8
  %28 = icmp ne i32 %27, 0
  br i1 %28, label %29, label %95

29:                                               ; preds = %3
  store i32 0, ptr %9, align 4
  br label %30

30:                                               ; preds = %72, %29
  %31 = load i32, ptr %9, align 4
  %32 = load ptr, ptr %5, align 8
  %33 = getelementptr inbounds nuw %struct.DbInfo, ptr %32, i32 0, i32 3
  %34 = getelementptr inbounds nuw %struct.RelInfoArr, ptr %33, i32 0, i32 1
  %35 = load i32, ptr %34, align 8
  %36 = icmp slt i32 %31, %35
  br i1 %36, label %37, label %75

37:                                               ; preds = %30
  call void @llvm.lifetime.start.p0(i64 8, ptr %10) #7
  %38 = load ptr, ptr %5, align 8
  %39 = getelementptr inbounds nuw %struct.DbInfo, ptr %38, i32 0, i32 3
  %40 = getelementptr inbounds nuw %struct.RelInfoArr, ptr %39, i32 0, i32 0
  %41 = load ptr, ptr %40, align 8
  %42 = load i32, ptr %9, align 4
  %43 = sext i32 %42 to i64
  %44 = getelementptr inbounds %struct.RelInfo, ptr %41, i64 %43
  store ptr %44, ptr %10, align 8
  %45 = load ptr, ptr %10, align 8
  %46 = getelementptr inbounds nuw %struct.RelInfo, ptr %45, i32 0, i32 2
  %47 = load i32, ptr %46, align 8
  %48 = load ptr, ptr %4, align 8
  %49 = getelementptr inbounds nuw %struct.RelInfo, ptr %48, i32 0, i32 4
  %50 = load i32, ptr %49, align 8
  %51 = icmp eq i32 %47, %50
  br i1 %51, label %52, label %68

52:                                               ; preds = %37
  %53 = getelementptr inbounds [1000 x i8], ptr %8, i64 0, i64 0
  %54 = getelementptr inbounds [1000 x i8], ptr %8, i64 0, i64 0
  %55 = call i64 @strlen(ptr noundef %54) #8
  %56 = getelementptr inbounds nuw i8, ptr %53, i64 %55
  %57 = getelementptr inbounds [1000 x i8], ptr %8, i64 0, i64 0
  %58 = call i64 @strlen(ptr noundef %57) #8
  %59 = sub i64 1000, %58
  %60 = load ptr, ptr %10, align 8
  %61 = getelementptr inbounds nuw %struct.RelInfo, ptr %60, i32 0, i32 0
  %62 = load ptr, ptr %61, align 8
  %63 = load ptr, ptr %10, align 8
  %64 = getelementptr inbounds nuw %struct.RelInfo, ptr %63, i32 0, i32 1
  %65 = load ptr, ptr %64, align 8
  %66 = call i32 (ptr, i64, ptr, ...) @pg_snprintf(ptr noundef %56, i64 noundef %59, ptr noundef @.str.9, ptr noundef %62, ptr noundef %65)
  %67 = load ptr, ptr %10, align 8
  store ptr %67, ptr %4, align 8
  store i32 2, ptr %11, align 4
  br label %69

68:                                               ; preds = %37
  store i32 0, ptr %11, align 4
  br label %69

69:                                               ; preds = %68, %52
  call void @llvm.lifetime.end.p0(i64 8, ptr %10) #7
  %70 = load i32, ptr %11, align 4
  switch i32 %70, label %181 [
    i32 0, label %71
    i32 2, label %75
  ]

71:                                               ; preds = %69
  br label %72

72:                                               ; preds = %71
  %73 = load i32, ptr %9, align 4
  %74 = add i32 %73, 1
  store i32 %74, ptr %9, align 4
  br label %30, !llvm.loop !8

75:                                               ; preds = %69, %30
  %76 = load i32, ptr %9, align 4
  %77 = load ptr, ptr %5, align 8
  %78 = getelementptr inbounds nuw %struct.DbInfo, ptr %77, i32 0, i32 3
  %79 = getelementptr inbounds nuw %struct.RelInfoArr, ptr %78, i32 0, i32 1
  %80 = load i32, ptr %79, align 8
  %81 = icmp sge i32 %76, %80
  br i1 %81, label %82, label %94

82:                                               ; preds = %75
  %83 = getelementptr inbounds [1000 x i8], ptr %8, i64 0, i64 0
  %84 = getelementptr inbounds [1000 x i8], ptr %8, i64 0, i64 0
  %85 = call i64 @strlen(ptr noundef %84) #8
  %86 = getelementptr inbounds nuw i8, ptr %83, i64 %85
  %87 = getelementptr inbounds [1000 x i8], ptr %8, i64 0, i64 0
  %88 = call i64 @strlen(ptr noundef %87) #8
  %89 = sub i64 1000, %88
  %90 = load ptr, ptr %4, align 8
  %91 = getelementptr inbounds nuw %struct.RelInfo, ptr %90, i32 0, i32 4
  %92 = load i32, ptr %91, align 8
  %93 = call i32 (ptr, i64, ptr, ...) @pg_snprintf(ptr noundef %86, i64 noundef %89, ptr noundef @.str.10, i32 noundef %92)
  br label %94

94:                                               ; preds = %82, %75
  br label %95

95:                                               ; preds = %94, %3
  %96 = load ptr, ptr %4, align 8
  %97 = getelementptr inbounds nuw %struct.RelInfo, ptr %96, i32 0, i32 5
  %98 = load i32, ptr %97, align 4
  %99 = icmp ne i32 %98, 0
  br i1 %99, label %100, label %165

100:                                              ; preds = %95
  store i32 0, ptr %9, align 4
  br label %101

101:                                              ; preds = %142, %100
  %102 = load i32, ptr %9, align 4
  %103 = load ptr, ptr %5, align 8
  %104 = getelementptr inbounds nuw %struct.DbInfo, ptr %103, i32 0, i32 3
  %105 = getelementptr inbounds nuw %struct.RelInfoArr, ptr %104, i32 0, i32 1
  %106 = load i32, ptr %105, align 8
  %107 = icmp slt i32 %102, %106
  br i1 %107, label %108, label %145

108:                                              ; preds = %101
  call void @llvm.lifetime.start.p0(i64 8, ptr %12) #7
  %109 = load ptr, ptr %5, align 8
  %110 = getelementptr inbounds nuw %struct.DbInfo, ptr %109, i32 0, i32 3
  %111 = getelementptr inbounds nuw %struct.RelInfoArr, ptr %110, i32 0, i32 0
  %112 = load ptr, ptr %111, align 8
  %113 = load i32, ptr %9, align 4
  %114 = sext i32 %113 to i64
  %115 = getelementptr inbounds %struct.RelInfo, ptr %112, i64 %114
  store ptr %115, ptr %12, align 8
  %116 = load ptr, ptr %12, align 8
  %117 = getelementptr inbounds nuw %struct.RelInfo, ptr %116, i32 0, i32 2
  %118 = load i32, ptr %117, align 8
  %119 = load ptr, ptr %4, align 8
  %120 = getelementptr inbounds nuw %struct.RelInfo, ptr %119, i32 0, i32 5
  %121 = load i32, ptr %120, align 4
  %122 = icmp eq i32 %118, %121
  br i1 %122, label %123, label %138

123:                                              ; preds = %108
  %124 = getelementptr inbounds [1000 x i8], ptr %8, i64 0, i64 0
  %125 = getelementptr inbounds [1000 x i8], ptr %8, i64 0, i64 0
  %126 = call i64 @strlen(ptr noundef %125) #8
  %127 = getelementptr inbounds nuw i8, ptr %124, i64 %126
  %128 = getelementptr inbounds [1000 x i8], ptr %8, i64 0, i64 0
  %129 = call i64 @strlen(ptr noundef %128) #8
  %130 = sub i64 1000, %129
  %131 = load ptr, ptr %12, align 8
  %132 = getelementptr inbounds nuw %struct.RelInfo, ptr %131, i32 0, i32 0
  %133 = load ptr, ptr %132, align 8
  %134 = load ptr, ptr %12, align 8
  %135 = getelementptr inbounds nuw %struct.RelInfo, ptr %134, i32 0, i32 1
  %136 = load ptr, ptr %135, align 8
  %137 = call i32 (ptr, i64, ptr, ...) @pg_snprintf(ptr noundef %127, i64 noundef %130, ptr noundef @.str.11, ptr noundef %133, ptr noundef %136)
  store i32 5, ptr %11, align 4
  br label %139

138:                                              ; preds = %108
  store i32 0, ptr %11, align 4
  br label %139

139:                                              ; preds = %138, %123
  call void @llvm.lifetime.end.p0(i64 8, ptr %12) #7
  %140 = load i32, ptr %11, align 4
  switch i32 %140, label %181 [
    i32 0, label %141
    i32 5, label %145
  ]

141:                                              ; preds = %139
  br label %142

142:                                              ; preds = %141
  %143 = load i32, ptr %9, align 4
  %144 = add i32 %143, 1
  store i32 %144, ptr %9, align 4
  br label %101, !llvm.loop !9

145:                                              ; preds = %139, %101
  %146 = load i32, ptr %9, align 4
  %147 = load ptr, ptr %5, align 8
  %148 = getelementptr inbounds nuw %struct.DbInfo, ptr %147, i32 0, i32 3
  %149 = getelementptr inbounds nuw %struct.RelInfoArr, ptr %148, i32 0, i32 1
  %150 = load i32, ptr %149, align 8
  %151 = icmp sge i32 %146, %150
  br i1 %151, label %152, label %164

152:                                              ; preds = %145
  %153 = getelementptr inbounds [1000 x i8], ptr %8, i64 0, i64 0
  %154 = getelementptr inbounds [1000 x i8], ptr %8, i64 0, i64 0
  %155 = call i64 @strlen(ptr noundef %154) #8
  %156 = getelementptr inbounds nuw i8, ptr %153, i64 %155
  %157 = getelementptr inbounds [1000 x i8], ptr %8, i64 0, i64 0
  %158 = call i64 @strlen(ptr noundef %157) #8
  %159 = sub i64 1000, %158
  %160 = load ptr, ptr %4, align 8
  %161 = getelementptr inbounds nuw %struct.RelInfo, ptr %160, i32 0, i32 5
  %162 = load i32, ptr %161, align 4
  %163 = call i32 (ptr, i64, ptr, ...) @pg_snprintf(ptr noundef %156, i64 noundef %159, ptr noundef @.str.12, i32 noundef %162)
  br label %164

164:                                              ; preds = %152, %145
  br label %165

165:                                              ; preds = %164, %95
  %166 = load i8, ptr %6, align 1, !range !6, !noundef !7
  %167 = trunc i8 %166 to i1
  br i1 %167, label %168, label %174

168:                                              ; preds = %165
  %169 = load i32, ptr %7, align 4
  %170 = load ptr, ptr %5, align 8
  %171 = getelementptr inbounds nuw %struct.DbInfo, ptr %170, i32 0, i32 1
  %172 = load ptr, ptr %171, align 8
  %173 = getelementptr inbounds [1000 x i8], ptr %8, i64 0, i64 0
  call void (i32, ptr, ...) @pg_log(i32 noundef 4, ptr noundef @.str.13, i32 noundef %169, ptr noundef %172, ptr noundef %173)
  br label %180

174:                                              ; preds = %165
  %175 = load i32, ptr %7, align 4
  %176 = load ptr, ptr %5, align 8
  %177 = getelementptr inbounds nuw %struct.DbInfo, ptr %176, i32 0, i32 1
  %178 = load ptr, ptr %177, align 8
  %179 = getelementptr inbounds [1000 x i8], ptr %8, i64 0, i64 0
  call void (i32, ptr, ...) @pg_log(i32 noundef 4, ptr noundef @.str.14, i32 noundef %175, ptr noundef %178, ptr noundef %179)
  br label %180

180:                                              ; preds = %174, %168
  call void @llvm.lifetime.end.p0(i64 4, ptr %9) #7
  call void @llvm.lifetime.end.p0(i64 1000, ptr %8) #7
  call void @llvm.lifetime.end.p0(i64 4, ptr %7) #7
  ret void

181:                                              ; preds = %139, %69
  unreachable
}