; Function Attrs: nounwind uwtable
define internal fastcc void @report_unmatched_relation(ptr noundef readonly captures(none) %0, ptr noundef readonly captures(none) %1, i1 noundef zeroext %2) unnamed_addr #0 {
  %4 = alloca [1000 x i8], align 16
  %5 = getelementptr inbounds nuw i8, ptr %0, i64 16
  %6 = load i32, ptr %5, align 8
  call void @llvm.lifetime.start.p0(i64 1000, ptr nonnull %4) #7
  %7 = load ptr, ptr %0, align 8
  %8 = getelementptr inbounds nuw i8, ptr %0, i64 8
  %9 = load ptr, ptr %8, align 8
  %10 = call i32 (ptr, i64, ptr, ...) @pg_snprintf(ptr noundef nonnull %4, i64 noundef 1000, ptr noundef nonnull @.str.8, ptr noundef %7, ptr noundef %9) #7
  %11 = getelementptr inbounds nuw i8, ptr %0, i64 24
  %12 = load i32, ptr %11, align 8
  %.not = icmp eq i32 %12, 0
  br i1 %.not, label %40, label %.preheader52

.preheader52:                                     ; preds = %3
  %13 = getelementptr inbounds nuw i8, ptr %1, i64 1048
  %14 = load i32, ptr %13, align 8
  %15 = icmp sgt i32 %14, 0
  br i1 %15, label %.lr.ph, label %.loopexit53

.lr.ph:                                           ; preds = %.preheader52
  %16 = getelementptr inbounds nuw i8, ptr %1, i64 1040
  %17 = load ptr, ptr %16, align 8
  %wide.trip.count = zext nneg i32 %14 to i64
  br label %18

18:                                               ; preds = %.lr.ph, %32
  %indvars.iv = phi i64 [ 0, %.lr.ph ], [ %indvars.iv.next, %32 ]
  %19 = getelementptr inbounds nuw %struct.RelInfo, ptr %17, i64 %indvars.iv
  %20 = getelementptr inbounds nuw i8, ptr %19, i64 16
  %21 = load i32, ptr %20, align 8
  %22 = icmp eq i32 %21, %12
  br i1 %22, label %23, label %32

23:                                               ; preds = %18
  %24 = trunc nuw nsw i64 %indvars.iv to i32
  %25 = call i64 @strlen(ptr noundef nonnull dereferenceable(1) %4) #8
  %26 = getelementptr inbounds nuw i8, ptr %4, i64 %25
  %27 = sub i64 1000, %25
  %28 = load ptr, ptr %19, align 8
  %29 = getelementptr inbounds nuw i8, ptr %19, i64 8
  %30 = load ptr, ptr %29, align 8
  %31 = call i32 (ptr, i64, ptr, ...) @pg_snprintf(ptr noundef nonnull %26, i64 noundef %27, ptr noundef nonnull @.str.9, ptr noundef %28, ptr noundef %30) #7
  %.pre = load i32, ptr %13, align 8
  br label %.loopexit53

32:                                               ; preds = %18
  %indvars.iv.next = add nuw nsw i64 %indvars.iv, 1
  %exitcond.not = icmp eq i64 %indvars.iv.next, %wide.trip.count
  br i1 %exitcond.not, label %.loopexit53.thread, label %18, !llvm.loop !6

.loopexit53:                                      ; preds = %.preheader52, %23
  %33 = phi i32 [ %.pre, %23 ], [ %14, %.preheader52 ]
  %.03861 = phi i32 [ %24, %23 ], [ 0, %.preheader52 ]
  %.2 = phi ptr [ %19, %23 ], [ %0, %.preheader52 ]
  %.not40 = icmp slt i32 %.03861, %33
  br i1 %.not40, label %40, label %.loopexit53.thread

.loopexit53.thread:                               ; preds = %32, %.loopexit53
  %.284 = phi ptr [ %.2, %.loopexit53 ], [ %0, %32 ]
  %34 = call i64 @strlen(ptr noundef nonnull dereferenceable(1) %4) #8
  %35 = getelementptr inbounds nuw i8, ptr %4, i64 %34
  %36 = sub i64 1000, %34
  %37 = getelementptr inbounds nuw i8, ptr %.284, i64 24
  %38 = load i32, ptr %37, align 8
  %39 = call i32 (ptr, i64, ptr, ...) @pg_snprintf(ptr noundef nonnull %35, i64 noundef %36, ptr noundef nonnull @.str.10, i32 noundef %38) #7
  br label %40

40:                                               ; preds = %.loopexit53, %.loopexit53.thread, %3
  %.0 = phi ptr [ %.284, %.loopexit53.thread ], [ %.2, %.loopexit53 ], [ %0, %3 ]
  %41 = getelementptr inbounds nuw i8, ptr %.0, i64 28
  %42 = load i32, ptr %41, align 4
  %.not41 = icmp eq i32 %42, 0
  br i1 %.not41, label %69, label %.preheader

.preheader:                                       ; preds = %40
  %43 = getelementptr inbounds nuw i8, ptr %1, i64 1048
  %44 = load i32, ptr %43, align 8
  %45 = icmp sgt i32 %44, 0
  br i1 %45, label %.lr.ph65, label %.loopexit

.lr.ph65:                                         ; preds = %.preheader
  %46 = getelementptr inbounds nuw i8, ptr %1, i64 1040
  %47 = load ptr, ptr %46, align 8
  %wide.trip.count78 = zext nneg i32 %44 to i64
  br label %48

48:                                               ; preds = %.lr.ph65, %62
  %indvars.iv75 = phi i64 [ 0, %.lr.ph65 ], [ %indvars.iv.next76, %62 ]
  %49 = getelementptr inbounds nuw %struct.RelInfo, ptr %47, i64 %indvars.iv75
  %50 = getelementptr inbounds nuw i8, ptr %49, i64 16
  %51 = load i32, ptr %50, align 8
  %52 = icmp eq i32 %51, %42
  br i1 %52, label %53, label %62

53:                                               ; preds = %48
  %54 = trunc nuw nsw i64 %indvars.iv75 to i32
  %55 = call i64 @strlen(ptr noundef nonnull dereferenceable(1) %4) #8
  %56 = getelementptr inbounds nuw i8, ptr %4, i64 %55
  %57 = sub i64 1000, %55
  %58 = load ptr, ptr %49, align 8
  %59 = getelementptr inbounds nuw i8, ptr %49, i64 8
  %60 = load ptr, ptr %59, align 8
  %61 = call i32 (ptr, i64, ptr, ...) @pg_snprintf(ptr noundef nonnull %56, i64 noundef %57, ptr noundef nonnull @.str.11, ptr noundef %58, ptr noundef %60) #7
  %.pre80 = load i32, ptr %43, align 8
  br label %.loopexit

62:                                               ; preds = %48
  %indvars.iv.next76 = add nuw nsw i64 %indvars.iv75, 1
  %exitcond79.not = icmp eq i64 %indvars.iv.next76, %wide.trip.count78
  br i1 %exitcond79.not, label %.loopexit.thread, label %48, !llvm.loop !7

.loopexit:                                        ; preds = %.preheader, %53
  %63 = phi i32 [ %.pre80, %53 ], [ %44, %.preheader ]
  %.13956 = phi i32 [ %54, %53 ], [ 0, %.preheader ]
  %.not42 = icmp slt i32 %.13956, %63
  br i1 %.not42, label %69, label %.loopexit.thread

.loopexit.thread:                                 ; preds = %62, %.loopexit
  %64 = call i64 @strlen(ptr noundef nonnull dereferenceable(1) %4) #8
  %65 = getelementptr inbounds nuw i8, ptr %4, i64 %64
  %66 = sub i64 1000, %64
  %67 = load i32, ptr %41, align 4
  %68 = call i32 (ptr, i64, ptr, ...) @pg_snprintf(ptr noundef nonnull %65, i64 noundef %66, ptr noundef nonnull @.str.12, i32 noundef %67) #7
  br label %69

69:                                               ; preds = %.loopexit, %.loopexit.thread, %40
  %70 = getelementptr inbounds nuw i8, ptr %1, i64 8
  %71 = load ptr, ptr %70, align 8
  %.str.13..str.14 = select i1 %2, ptr @.str.13, ptr @.str.14
  call void (i32, ptr, ...) @pg_log(i32 noundef 4, ptr noundef nonnull %.str.13..str.14, i32 noundef %6, ptr noundef %71, ptr noundef nonnull %4) #7
  call void @llvm.lifetime.end.p0(i64 1000, ptr nonnull %4) #7
  ret void
}